; Function Attrs: mustprogress uwtable
define void @_ZN6colvar6h_bond14calc_gradientsEv(ptr noundef nonnull align 8 dereferenceable(1624) %0) unnamed_addr #2 align 2 {
  %2 = alloca %"class.colvarmodule::rvector", align 8
  call void @llvm.lifetime.start.p0(i64 24, ptr nonnull %2) #17
  %3 = getelementptr inbounds nuw i8, ptr %0, i64 1608
  %4 = getelementptr inbounds nuw i8, ptr %0, i64 1616
  call void @llvm.memset.p0.i64(ptr noundef nonnull align 8 dereferenceable(24) %2, i8 0, i64 24, i1 false)
  %5 = load i32, ptr %4, align 8, !tbaa !129
  %6 = getelementptr inbounds nuw i8, ptr %0, i64 1620
  %7 = load i32, ptr %6, align 4, !tbaa !131
  %8 = getelementptr inbounds nuw i8, ptr %0, i64 536
  %9 = load ptr, ptr %8, align 8, !tbaa !127
  %10 = load ptr, ptr %9, align 8, !tbaa !128
  %11 = getelementptr inbounds nuw i8, ptr %10, i64 504
  %12 = load ptr, ptr %11, align 8, !tbaa !132
  %13 = getelementptr inbounds nuw i8, ptr %12, i64 120
  %14 = call noundef double @_ZN6colvar8coordnum18switching_functionILi1EEEdRKdRKN12colvarmodule7rvectorEiiRNS4_4atomES9_PPbd(ptr noundef nonnull align 8 dereferenceable(8) %3, ptr noundef nonnull align 8 dereferenceable(24) %2, i32 noundef %5, i32 noundef %7, ptr noundef nonnull align 8 dereferenceable(120) %12, ptr noundef nonnull align 8 dereferenceable(120) %13, ptr noundef null, double noundef 0.000000e+00)
  call void @llvm.lifetime.end.p0(i64 24, ptr nonnull %2) #17
  ret void
}